target datalayout = "e-m:e-p270:32:32-p271:32:32-p272:64:64-i64:64-i128:128-f80:128-n8:16:32:64-S128"
target triple = "x86_64-pc-linux-gnu"

%struct.x509_st = type { %struct.x509_cinf_st, %struct.X509_algor_st, %struct.asn1_string_st, %struct.x509_sig_info_st, %struct.CRYPTO_REF_COUNT, %struct.crypto_ex_data_st, i64, i64, i32, i32, i32, i32, ptr, ptr, ptr, ptr, ptr, ptr, ptr, ptr, [20 x i8], ptr, ptr, i32, ptr, ptr, ptr }
%struct.x509_cinf_st = type { ptr, %struct.asn1_string_st, %struct.X509_algor_st, ptr, %struct.X509_val_st, ptr, ptr, ptr, ptr, ptr, %struct.ASN1_ENCODING_st }
%struct.X509_val_st = type { ptr, ptr }
%struct.ASN1_ENCODING_st = type { ptr, i64, i32 }
%struct.X509_algor_st = type { ptr, ptr }
%struct.asn1_string_st = type { i32, i32, ptr, i64 }
%struct.x509_sig_info_st = type { i32, i32, i32, i32 }
%struct.CRYPTO_REF_COUNT = type { i32 }
%struct.crypto_ex_data_st = type { ptr, ptr }

@X509_it.local_it = internal constant { i8, [7 x i8], i64, ptr, i64, ptr, i64, ptr } { i8 1, [7 x i8] zeroinitializer, i64 16, ptr @X509_seq_tt, i64 3, ptr @X509_aux, i64 384, ptr @.str.1 }, align 8

; Function Attrs: nounwind uwtable
define ptr @X509_it() #0 {
  ret ptr @X509_it.local_it
}

; Function Attrs: nounwind uwtable
define void @X509_free(ptr noundef %0) #0 {
  %2 = alloca ptr, align 8
  store ptr %0, ptr %2, align 8, !tbaa !16
  %3 = load ptr, ptr %2, align 8, !tbaa !16
  %4 = call ptr @X509_it()
  call void @ASN1_item_free(ptr noundef %3, ptr noundef %4)
  ret void
}

; Function Attrs: nounwind uwtable
define ptr @d2i_X509(ptr noundef %0, ptr noundef %1, i64 noundef %2) #0 {
  %4 = alloca ptr, align 8
  %5 = alloca ptr, align 8
  %6 = alloca i64, align 8
  store ptr %0, ptr %4, align 8, !tbaa !14
  store ptr %1, ptr %5, align 8, !tbaa !8
  store i64 %2, ptr %6, align 8, !tbaa !10
  %7 = load ptr, ptr %4, align 8, !tbaa !14
  %8 = load ptr, ptr %5, align 8, !tbaa !8
  %9 = load i64, ptr %6, align 8, !tbaa !10
  %10 = call ptr @X509_it()
  %11 = call ptr @ASN1_item_d2i(ptr noundef %7, ptr noundef %8, i64 noundef %9, ptr noundef %10)
  ret ptr %11
}

; Function Attrs: nounwind uwtable
define ptr @d2i_X509_AUX(ptr noundef %0, ptr noundef %1, i64 noundef %2) #0 {
  %4 = alloca ptr, align 8
  %5 = alloca ptr, align 8
  %6 = alloca ptr, align 8
  %7 = alloca i64, align 8
  %8 = alloca ptr, align 8
  %9 = alloca ptr, align 8
  %10 = alloca i32, align 4
  %11 = alloca i32, align 4
  store ptr %0, ptr %5, align 8, !tbaa !14
  store ptr %1, ptr %6, align 8, !tbaa !8
  store i64 %2, ptr %7, align 8, !tbaa !10
  call void @llvm.lifetime.start.p0(i64 8, ptr %8) #4
  call void @llvm.lifetime.start.p0(i64 8, ptr %9) #4
  call void @llvm.lifetime.start.p0(i64 4, ptr %10) #4
  store i32 0, ptr %10, align 4, !tbaa !49
  %12 = load ptr, ptr %6, align 8, !tbaa !8
  %13 = load ptr, ptr %12, align 8, !tbaa !20
  store ptr %13, ptr %8, align 8, !tbaa !20
  %14 = load ptr, ptr %5, align 8, !tbaa !14
  %15 = icmp eq ptr %14, null
  br i1 %15, label %20, label %16

16:                                               ; preds = %3
  %17 = load ptr, ptr %5, align 8, !tbaa !14
  %18 = load ptr, ptr %17, align 8, !tbaa !16
  %19 = icmp eq ptr %18, null
  br i1 %19, label %20, label %21

20:                                               ; preds = %16, %3
  store i32 1, ptr %10, align 4, !tbaa !49
  br label %21

21:                                               ; preds = %20, %16
  %22 = load ptr, ptr %5, align 8, !tbaa !14
  %23 = load i64, ptr %7, align 8, !tbaa !10
  %24 = call ptr @d2i_X509(ptr noundef %22, ptr noundef %8, i64 noundef %23)
  store ptr %24, ptr %9, align 8, !tbaa !16
  %25 = load ptr, ptr %9, align 8, !tbaa !16
  %26 = icmp eq ptr %25, null
  br i1 %26, label %27, label %28

27:                                               ; preds = %21
  store ptr null, ptr %4, align 8
  store i32 1, ptr %11, align 4
  br label %61

28:                                               ; preds = %21
  %29 = load ptr, ptr %8, align 8, !tbaa !20
  %30 = load ptr, ptr %6, align 8, !tbaa !8
  %31 = load ptr, ptr %30, align 8, !tbaa !20
  %32 = ptrtoint ptr %29 to i64
  %33 = ptrtoint ptr %31 to i64
  %34 = sub i64 %32, %33
  %35 = load i64, ptr %7, align 8, !tbaa !10
  %36 = sub nsw i64 %35, %34
  store i64 %36, ptr %7, align 8, !tbaa !10
  %37 = load i64, ptr %7, align 8, !tbaa !10
  %38 = icmp sgt i64 %37, 0
  br i1 %38, label %39, label %46

39:                                               ; preds = %28
  %40 = load ptr, ptr %9, align 8, !tbaa !16
  %41 = getelementptr inbounds nuw %struct.x509_st, ptr %40, i32 0, i32 21
  %42 = load i64, ptr %7, align 8, !tbaa !10
  %43 = call ptr @d2i_X509_CERT_AUX(ptr noundef %41, ptr noundef %8, i64 noundef %42)
  %44 = icmp ne ptr %43, null
  br i1 %44, label %46, label %45

45:                                               ; preds = %39
  br label %50

46:                                               ; preds = %39, %28
  %47 = load ptr, ptr %8, align 8, !tbaa !20
  %48 = load ptr, ptr %6, align 8, !tbaa !8
  store ptr %47, ptr %48, align 8, !tbaa !20
  %49 = load ptr, ptr %9, align 8, !tbaa !16
  store ptr %49, ptr %4, align 8
  store i32 1, ptr %11, align 4
  br label %61

50:                                               ; preds = %45
  %51 = load i32, ptr %10, align 4, !tbaa !49
  %52 = icmp ne i32 %51, 0
  br i1 %52, label %53, label %60

53:                                               ; preds = %50
  %54 = load ptr, ptr %9, align 8, !tbaa !16
  call void @X509_free(ptr noundef %54)
  %55 = load ptr, ptr %5, align 8, !tbaa !14
  %56 = icmp ne ptr %55, null
  br i1 %56, label %57, label %59

57:                                               ; preds = %53
  %58 = load ptr, ptr %5, align 8, !tbaa !14
  store ptr null, ptr %58, align 8, !tbaa !16
  br label %59

59:                                               ; preds = %57, %53
  br label %60

60:                                               ; preds = %59, %50
  store ptr null, ptr %4, align 8
  store i32 1, ptr %11, align 4
  br label %61

61:                                               ; preds = %60, %46, %27
  call void @llvm.lifetime.end.p0(i64 4, ptr %10) #4
  call void @llvm.lifetime.end.p0(i64 8, ptr %9) #4
  call void @llvm.lifetime.end.p0(i64 8, ptr %8) #4
  %62 = load ptr, ptr %4, align 8
  ret ptr %62
}