; Function Attrs: nounwind uwtable
define ptr @d2i_X509_AUX(ptr noundef %0, ptr noundef captures(none) %1, i64 noundef %2) local_unnamed_addr #1 {
  %4 = alloca ptr, align 8
  call void @llvm.lifetime.start.p0(i64 8, ptr nonnull %4) #7
  %5 = load ptr, ptr %1, align 8, !tbaa !36
  store ptr %5, ptr %4, align 8, !tbaa !36
  %6 = icmp eq ptr %0, null
  br i1 %6, label %.split19, label %7

7:                                                ; preds = %3
  %8 = load ptr, ptr %0, align 8, !tbaa !37
  %9 = icmp eq ptr %8, null
  br i1 %9, label %.split19, label %.split

.split19:                                         ; preds = %3, %7
  br label %.split

.split:                                           ; preds = %7, %.split19
  %.not22 = phi i1 [ false, %.split19 ], [ true, %7 ]
  %10 = call ptr @ASN1_item_d2i(ptr noundef %0, ptr noundef nonnull %4, i64 noundef %2, ptr noundef nonnull @X509_it.local_it) #7
  %11 = icmp eq ptr %10, null
  br i1 %11, label %27, label %12

12:                                               ; preds = %.split
  %13 = load ptr, ptr %4, align 8, !tbaa !36
  %14 = load ptr, ptr %1, align 8, !tbaa !36
  %15 = ptrtoint ptr %13 to i64
  %16 = ptrtoint ptr %14 to i64
  %.neg = sub i64 %16, %15
  %17 = add i64 %.neg, %2
  %18 = icmp sgt i64 %17, 0
  br i1 %18, label %19, label %22

19:                                               ; preds = %12
  %20 = getelementptr inbounds nuw i8, ptr %10, i64 336
  %21 = call ptr @d2i_X509_CERT_AUX(ptr noundef nonnull %20, ptr noundef nonnull %4, i64 noundef %17) #7
  %.not = icmp eq ptr %21, null
  br i1 %.not, label %24, label %._crit_edge

._crit_edge:                                      ; preds = %19
  %.pre = load ptr, ptr %4, align 8, !tbaa !36
  br label %22

22:                                               ; preds = %._crit_edge, %12
  %23 = phi ptr [ %.pre, %._crit_edge ], [ %13, %12 ]
  store ptr %23, ptr %1, align 8, !tbaa !36
  br label %27

24:                                               ; preds = %19
  br i1 %.not22, label %27, label %25

25:                                               ; preds = %24
  call void @ASN1_item_free(ptr noundef nonnull %10, ptr noundef nonnull @X509_it.local_it) #7
  br i1 %6, label %27, label %26

26:                                               ; preds = %25
  store ptr null, ptr %0, align 8, !tbaa !37
  br label %27

27:                                               ; preds = %24, %26, %25, %.split, %22
  %.017 = phi ptr [ %10, %22 ], [ null, %.split ], [ null, %25 ], [ null, %26 ], [ null, %24 ]
  call void @llvm.lifetime.end.p0(i64 8, ptr nonnull %4) #7
  ret ptr %.017
}